; Function Attrs: nounwind uwtable
define hidden range(i32 0, 2) i32 @_glfwChooseVisualGLX(ptr noundef readnone captures(none) %0, ptr noundef readnone captures(none) %1, ptr noundef %2, ptr noundef writeonly captures(none) %3, ptr noundef writeonly captures(none) %4) local_unnamed_addr #0 {
  %6 = alloca ptr, align 8
  call void @llvm.lifetime.start.p0(i64 8, ptr nonnull %6) #4
  %7 = call fastcc i32 @chooseGLXFBConfig(ptr noundef %2, ptr noundef %6)
  %.not = icmp eq i32 %7, 0
  br i1 %.not, label %8, label %9

8:                                                ; preds = %5
  tail call void (i32, ptr, ...) @_glfwInputError(i32 noundef 65545, ptr noundef nonnull @.str.39) #4
  br label %21

9:                                                ; preds = %5
  %10 = load ptr, ptr getelementptr inbounds nuw (i8, ptr @_glfw, i64 143464), align 8, !tbaa !106
  %11 = load ptr, ptr getelementptr inbounds nuw (i8, ptr @_glfw, i64 137840), align 8, !tbaa !109
  %12 = load ptr, ptr %6, align 8, !tbaa !128
  %13 = tail call ptr %10(ptr noundef %11, ptr noundef %12) #4
  %.not8 = icmp eq ptr %13, null
  br i1 %.not8, label %14, label %15

14:                                               ; preds = %9
  tail call void (i32, ptr, ...) @_glfwInputError(i32 noundef 65544, ptr noundef nonnull @.str.45) #4
  br label %21

15:                                               ; preds = %9
  %16 = load ptr, ptr %13, align 8, !tbaa !187
  store ptr %16, ptr %3, align 8, !tbaa !205
  %17 = getelementptr inbounds nuw i8, ptr %13, i64 20
  %18 = load i32, ptr %17, align 4, !tbaa !206
  store i32 %18, ptr %4, align 4, !tbaa !170
  %19 = load ptr, ptr getelementptr inbounds nuw (i8, ptr @_glfw, i64 141552), align 8, !tbaa !189
  %20 = tail call i32 %19(ptr noundef nonnull %13) #4
  br label %21

21:                                               ; preds = %15, %14, %8
  %.0 = phi i32 [ 1, %15 ], [ 0, %14 ], [ 0, %8 ]
  call void @llvm.lifetime.end.p0(i64 8, ptr nonnull %6) #4
  ret i32 %.0
}